target datalayout = "e-m:e-p270:32:32-p271:32:32-p272:64:64-i64:64-i128:128-f80:128-n8:16:32:64-S128"
target triple = "x86_64-pc-linux-gnu"

%class.Vmycpu_top___024root = type { %class.VerilatedModule, %struct.anon, %struct.anon.0, %struct.anon.1, %struct.anon.2, %struct.anon.3, %struct.anon.4, %struct.anon.8, [8 x i8], %class.VlTriggerVec, %class.VlTriggerVec.20, %class.VlTriggerVec, %class.VlTriggerVec, ptr, [56 x i8] }
%class.VerilatedModule = type { ptr }
%struct.anon = type { i8, i8, i8, i8, i8, i8, i8, i8, i8, i8, i8, i8, i8, i8, i8, i8, i8, i8, i8, i8, i8, i8, i8, i8, i8, i8, i8, i8, i8, i8, i8, i8, i8, i8, i8, i8, i8, i8, i8, i8, i8, i8, i8, i8, i8, i8, i8, i8, i8, i8, i8, i8, i8, i8, i8, i8, i8, i8, i8, i8, i8, i8, i8, i8 }
%struct.anon.0 = type { i8, i8, i8, i8, i8, i8, i8, i8, i8, i8, i8, i8, i8, i8, i8, i8, i8, i8, i8, i8, i8, i8, i8, i8, i8, i8, i8, i8, i8, i8, i8, i8, i8, i8, i8, i8, i8, i8, i8, i8, i8, i8, i8, i8, i8, i8, i8, i8, i8, i8, i8, i8, i8, i8, i8, i8, i8, i8, i8, i8, i8, i8, i8, i8 }
%struct.anon.1 = type { i8, i8, i8, i8, i8, i8, i8, i8, i8, i8, i8, i8, i8, i8, i8, i8, i8, i8, i8, i8, i8, i8, i8, i8, i8, i8, i8, i8, i8, i8, i8, i8, i8, i8, i8, i8, i8, i8, i8, i8, i8, i8, i8, i8, i8, i8, i8, i8, i8, i8, i8, i8, i8, i8, i8, i8, i8, i8, i8, i8, i8, i8, i8, i8 }
%struct.anon.2 = type { i8, i8, i8, i8, i8, i8, i8, i8, i8, i8, i8, i8, i8, i8, i8, i8, i8, i8, i8, i8, i8, i8, i8, i8, i8, i16, i16, i16, i16, i16, i16, i16, i16, i16, i16, i16, i32, i32, i32, i32, i32, i32, i32, i32, i32, i32, i32, i32, i32, i32, i32, i32, i32, i32, i32, i32, i32, i32, i32, i32, i32, i32, i32, i32 }
%struct.anon.3 = type { i32, i32, i32, i32, i32, i32, i32, i32, i32, i32, i32, i32, i32, i32, i32, i32, i32, i32, i32, i32, i32, i32, i32, i32, i32, i32, i32, i32, i32, i32, i32, i32, i32, i32, i32, i32, i32, i32, i32, i32, i32, i32, i32, i32, i32, i32, i32, i32, i32, i32, i32, i32, i32, i32, i32, i32, i32, i32, i32, i32, i32, i32, i32, i32 }
%struct.anon.4 = type { %struct.VlWide, i32, i32, i32, i32, i32, i32, i32, i32, i32, i32, i32, i32, i32, i32, i32, i32, i32, i32, i32, i32, i32, i32, i32, i32, i32, i32, i32, i32, i32, i32, i32, i32, i32, i32, i32, i32, i32, i32, i32, i32, i32, %struct.VlWide, %struct.VlWide, %struct.VlWide, %struct.VlWide, %struct.VlWide, %struct.VlWide, i64, i64, i64, i64, i64, i64, i64, i64, i64, i64, i64, i64, %struct.VlUnpacked, %struct.VlUnpacked.5, %struct.VlUnpacked.6, %struct.VlUnpacked.7 }
%struct.VlWide = type { [3 x i32] }
%struct.VlUnpacked = type { [16 x %struct.VlWide] }
%struct.VlUnpacked.5 = type { [32 x i32] }
%struct.VlUnpacked.6 = type { [16 x i8] }
%struct.VlUnpacked.7 = type { [64 x i8] }
%struct.anon.8 = type { %struct.VlUnpacked.9, %struct.VlUnpacked.10, %struct.VlUnpacked.11, %struct.VlUnpacked.10, %struct.VlUnpacked.7, %struct.VlUnpacked.12, %struct.VlUnpacked.13, %struct.VlUnpacked.13, %struct.VlUnpacked.14, %struct.VlUnpacked.15, %struct.VlUnpacked.14, %struct.VlUnpacked.15, %struct.VlUnpacked.7, %struct.VlUnpacked.16, %struct.VlUnpacked.17, %struct.VlUnpacked.13, %struct.VlUnpacked.13, %struct.VlUnpacked.13, %struct.VlUnpacked.18, %struct.VlUnpacked.18, %struct.VlUnpacked.18, %struct.VlUnpacked.18, %struct.VlUnpacked.19, %struct.VlUnpacked.15, %struct.VlUnpacked.19, %struct.VlUnpacked.15 }
%struct.VlUnpacked.9 = type { [8 x %struct.VlWide] }
%struct.VlUnpacked.11 = type { [3 x i32] }
%struct.VlUnpacked.10 = type { [3 x i8] }
%struct.VlUnpacked.12 = type { [2 x i64] }
%struct.VlUnpacked.14 = type { [512 x i64] }
%struct.VlUnpacked.16 = type { [4 x %struct.VlWide] }
%struct.VlUnpacked.17 = type { [16 x i32] }
%struct.VlUnpacked.13 = type { [2 x i8] }
%struct.VlUnpacked.18 = type { [2 x i32] }
%struct.VlUnpacked.19 = type { [1024 x i32] }
%struct.VlUnpacked.15 = type { [64 x i32] }
%class.VlTriggerVec.20 = type { %"struct.std::array", [8 x i8] }
%"struct.std::array" = type { [1 x i64] }
%class.VlTriggerVec = type { %"struct.std::array", [8 x i8] }

; Function Attrs: mustprogress nounwind uwtable
define linkonce_odr dso_local noundef nonnull align 8 dereferenceable(8) ptr @_ZNSt14__array_traitsImLm1EE6_S_refERA1_Kmm(ptr noundef nonnull align 8 dereferenceable(8) %0, i64 noundef %1) #1 comdat align 2 {
  %3 = alloca ptr, align 8
  %4 = alloca i64, align 8
  store ptr %0, ptr %3, align 8
  store i64 %1, ptr %4, align 8
  %5 = load ptr, ptr %3, align 8
  %6 = load i64, ptr %4, align 8
  %7 = getelementptr inbounds [1 x i64], ptr %5, i64 0, i64 %6
  ret ptr %7
}

; Function Attrs: mustprogress nounwind uwtable
define linkonce_odr dso_local noundef nonnull align 8 dereferenceable(8) ptr @_ZNKSt5arrayImLm1EEixEm(ptr noundef nonnull align 8 dereferenceable(8) %0, i64 noundef %1) #1 comdat align 2 {
  %3 = alloca ptr, align 8
  %4 = alloca i64, align 8
  store ptr %0, ptr %3, align 8
  store i64 %1, ptr %4, align 8
  %5 = load ptr, ptr %3, align 8
  %6 = getelementptr inbounds %"struct.std::array", ptr %5, i32 0, i32 0
  %7 = load i64, ptr %4, align 8
  %8 = call noundef nonnull align 8 dereferenceable(8) ptr @_ZNSt14__array_traitsImLm1EE6_S_refERA1_Kmm(ptr noundef nonnull align 8 dereferenceable(8) %6, i64 noundef %7) #6
  ret ptr %8
}

; Function Attrs: mustprogress nounwind uwtable
define linkonce_odr dso_local noundef i64 @_ZNK12VlTriggerVecILm2EE4wordEm(ptr noundef nonnull align 16 dereferenceable(16) %0, i64 noundef %1) #1 comdat align 2 {
  %3 = alloca ptr, align 8
  %4 = alloca i64, align 8
  store ptr %0, ptr %3, align 8
  store i64 %1, ptr %4, align 8
  %5 = load ptr, ptr %3, align 8
  %6 = getelementptr inbounds %class.VlTriggerVec, ptr %5, i32 0, i32 0
  %7 = load i64, ptr %4, align 8
  %8 = call noundef nonnull align 8 dereferenceable(8) ptr @_ZNKSt5arrayImLm1EEixEm(ptr noundef nonnull align 8 dereferenceable(8) %6, i64 noundef %7) #6
  %9 = load i64, ptr %8, align 8
  ret i64 %9
}

; Function Attrs: mustprogress uwtable
define dso_local void @_Z31Vmycpu_top___024root___eval_actP20Vmycpu_top___024root(ptr noundef %0) #0 {
  %2 = alloca ptr, align 8
  %3 = alloca ptr, align 8
  store ptr %0, ptr %2, align 8
  %4 = load ptr, ptr %2, align 8
  %5 = getelementptr inbounds %class.Vmycpu_top___024root, ptr %4, i32 0, i32 13
  %6 = load ptr, ptr %5, align 64
  store ptr %6, ptr %3, align 8
  br label %7

7:                                                ; preds = %1
  br label %8

8:                                                ; preds = %7
  %9 = load ptr, ptr %2, align 8
  %10 = getelementptr inbounds %class.Vmycpu_top___024root, ptr %9, i32 0, i32 11
  %11 = call noundef i64 @_ZNK12VlTriggerVecILm2EE4wordEm(ptr noundef nonnull align 16 dereferenceable(16) %10, i64 noundef 0)
  %12 = and i64 1, %11
  %13 = icmp ne i64 %12, 0
  br i1 %13, label %14, label %16

14:                                               ; preds = %8
  %15 = load ptr, ptr %2, align 8
  call void @_Z42Vmycpu_top___024root___act_sequent__TOP__0P20Vmycpu_top___024root(ptr noundef %15)
  br label %16

16:                                               ; preds = %14, %8
  ret void
}