; Function Attrs: mustprogress nofree norecurse nosync nounwind memory(argmem: readwrite) uwtable
define dso_local void @_Z31Vmycpu_top___024root___eval_actP20Vmycpu_top___024root(ptr noundef %0) local_unnamed_addr #4 {
  %2 = getelementptr inbounds i8, ptr %0, i64 19232
  %3 = load i64, ptr %2, align 8
  %4 = and i64 %3, 1
  %.not = icmp eq i64 %4, 0
  br i1 %.not, label %6, label %5

5:                                                ; preds = %1
  tail call void @_Z42Vmycpu_top___024root___act_sequent__TOP__0P20Vmycpu_top___024root(ptr noundef nonnull %0)
  br label %6

6:                                                ; preds = %5, %1
  ret void
}